target datalayout = "e-m:e-p270:32:32-p271:32:32-p272:64:64-i64:64-i128:128-f80:128-n8:16:32:64-S128"
target triple = "x86_64-pc-linux-gnu"

%"struct.std::__detail::_Hash_node_base" = type { ptr }
%"struct.std::__detail::_Prime_rehash_policy" = type { float, i64 }
%"class.std::__shared_count" = type { ptr }
%"struct.cv::GRunArg" = type { %"class.cv::util::variant.285", %"class.std::unordered_map.287" }
%"class.cv::util::variant.285" = type { i64, [1 x %"union.std::aligned_storage<96, 8>::type"] }
%"union.std::aligned_storage<96, 8>::type" = type { [96 x i8] }
%"class.std::unordered_map.287" = type { %"class.std::_Hashtable.288" }
%"class.std::_Hashtable.288" = type { ptr, i64, %"struct.std::__detail::_Hash_node_base", i64, %"struct.std::__detail::_Prime_rehash_policy", ptr }
%"class.(anonymous namespace)::VideoEmitter" = type { %"class.cv::gimpl::GIslandEmitter", %"class.std::shared_ptr.301" }
%"class.cv::gimpl::GIslandEmitter" = type { ptr }
%"class.std::shared_ptr.301" = type { %"class.std::__shared_ptr.302" }
%"class.std::__shared_ptr.302" = type { ptr, %"class.std::__shared_count" }
%"struct.cv::gapi::wip::Data" = type { %"struct.cv::GRunArg" }

; Function Attrs: mustprogress nounwind uwtable
define linkonce_odr hidden noundef ptr @_ZNKSt12__shared_ptrIN2cv4gapi3wip13IStreamSourceELN9__gnu_cxx12_Lock_policyE2EE3getEv(ptr noundef nonnull align 8 dereferenceable(16) %0) #5 comdat align 2 {
  %2 = alloca ptr, align 8
  store ptr %0, ptr %2, align 8, !tbaa !1405
  %3 = load ptr, ptr %2, align 8
  %4 = getelementptr inbounds nuw %"class.std::__shared_ptr.302", ptr %3, i32 0, i32 0
  %5 = load ptr, ptr %4, align 8, !tbaa !1658
  ret ptr %5
}

; Function Attrs: mustprogress nounwind uwtable
define linkonce_odr hidden noundef ptr @_ZNKSt19__shared_ptr_accessIN2cv4gapi3wip13IStreamSourceELN9__gnu_cxx12_Lock_policyE2ELb0ELb0EE6_M_getEv(ptr noundef nonnull align 1 dereferenceable(1) %0) #5 comdat align 2 {
  %2 = alloca ptr, align 8
  store ptr %0, ptr %2, align 8, !tbaa !1663
  %3 = load ptr, ptr %2, align 8
  %4 = call noundef ptr @_ZNKSt12__shared_ptrIN2cv4gapi3wip13IStreamSourceELN9__gnu_cxx12_Lock_policyE2EE3getEv(ptr noundef nonnull align 8 dereferenceable(16) %3) #3
  ret ptr %4
}

; Function Attrs: mustprogress nounwind uwtable
define linkonce_odr hidden noundef ptr @_ZNKSt19__shared_ptr_accessIN2cv4gapi3wip13IStreamSourceELN9__gnu_cxx12_Lock_policyE2ELb0ELb0EEptEv(ptr noundef nonnull align 1 dereferenceable(1) %0) #5 comdat align 2 {
  %2 = alloca ptr, align 8
  store ptr %0, ptr %2, align 8, !tbaa !1663
  %3 = load ptr, ptr %2, align 8
  %4 = call noundef ptr @_ZNKSt19__shared_ptr_accessIN2cv4gapi3wip13IStreamSourceELN9__gnu_cxx12_Lock_policyE2ELb0ELb0EE6_M_getEv(ptr noundef nonnull align 1 dereferenceable(1) %3) #3
  ret ptr %4
}

; Function Attrs: inlinehint mustprogress uwtable
define linkonce_odr hidden void @_ZN2cv4gapi3wip4DataC2Ev(ptr noundef nonnull align 8 dereferenceable(160) %0) unnamed_addr #6 comdat align 2 {
  %2 = alloca ptr, align 8
  store ptr %0, ptr %2, align 8, !tbaa !1661
  %3 = load ptr, ptr %2, align 8
  call void @_ZN2cv7GRunArgC2Ev(ptr noundef nonnull align 8 dereferenceable(160) %3)
  ret void
}

; Function Attrs: mustprogress uwtable
define internal noundef zeroext i1 @_ZN12_GLOBAL__N_112VideoEmitter4pullERN2cv7GRunArgE(ptr noundef nonnull align 8 dereferenceable(24) %0, ptr noundef nonnull align 8 dereferenceable(160) %1) unnamed_addr #4 align 2 personality ptr @__gxx_personality_v0 {
  %3 = alloca i1, align 1
  %4 = alloca ptr, align 8
  %5 = alloca ptr, align 8
  %6 = alloca %"struct.cv::gapi::wip::Data", align 8
  %7 = alloca ptr, align 8
  %8 = alloca i32, align 4
  %9 = alloca i32, align 4
  store ptr %0, ptr %4, align 8, !tbaa !503
  store ptr %1, ptr %5, align 8, !tbaa !301
  %10 = load ptr, ptr %4, align 8
  call void @llvm.lifetime.start.p0(i64 160, ptr %6) #3
  call void @_ZN2cv4gapi3wip4DataC2Ev(ptr noundef nonnull align 8 dereferenceable(160) %6)
  %11 = getelementptr inbounds nuw %"class.(anonymous namespace)::VideoEmitter", ptr %10, i32 0, i32 1
  %12 = call noundef ptr @_ZNKSt19__shared_ptr_accessIN2cv4gapi3wip13IStreamSourceELN9__gnu_cxx12_Lock_policyE2ELb0ELb0EEptEv(ptr noundef nonnull align 1 dereferenceable(1) %11) #3
  %13 = load ptr, ptr %12, align 8, !tbaa !12
  %14 = getelementptr inbounds ptr, ptr %13, i64 0
  %15 = load ptr, ptr %14, align 8
  %16 = invoke noundef zeroext i1 %15(ptr noundef nonnull align 8 dereferenceable(24) %12, ptr noundef nonnull align 8 dereferenceable(160) %6)
          to label %17 unwind label %19

17:                                               ; preds = %2
  br i1 %16, label %23, label %18

18:                                               ; preds = %17
  store i1 false, ptr %3, align 1
  store i32 1, ptr %9, align 4
  br label %27

19:                                               ; preds = %23, %2
  %20 = landingpad { ptr, i32 }
          cleanup
  %21 = extractvalue { ptr, i32 } %20, 0
  store ptr %21, ptr %7, align 8
  %22 = extractvalue { ptr, i32 } %20, 1
  store i32 %22, ptr %8, align 4
  call void @_ZN2cv7GRunArgD2Ev(ptr noundef nonnull align 8 dereferenceable(160) %6) #3
  call void @llvm.lifetime.end.p0(i64 160, ptr %6) #3
  br label %29

23:                                               ; preds = %17
  %24 = load ptr, ptr %5, align 8, !tbaa !301
  %25 = invoke noundef nonnull align 8 dereferenceable(160) ptr @_ZN2cv7GRunArgaSEOS0_(ptr noundef nonnull align 8 dereferenceable(160) %24, ptr noundef nonnull align 8 dereferenceable(160) %6)
          to label %26 unwind label %19

26:                                               ; preds = %23
  store i1 true, ptr %3, align 1
  store i32 1, ptr %9, align 4
  br label %27

27:                                               ; preds = %26, %18
  call void @_ZN2cv7GRunArgD2Ev(ptr noundef nonnull align 8 dereferenceable(160) %6) #3
  call void @llvm.lifetime.end.p0(i64 160, ptr %6) #3
  %28 = load i1, ptr %3, align 1
  ret i1 %28

29:                                               ; preds = %19
  %30 = load ptr, ptr %7, align 8
  %31 = load i32, ptr %8, align 4
  %32 = insertvalue { ptr, i32 } poison, ptr %30, 0
  %33 = insertvalue { ptr, i32 } %32, i32 %31, 1
  resume { ptr, i32 } %33
}