; Function Attrs: mustprogress uwtable
define internal noundef zeroext i1 @_ZN12_GLOBAL__N_112VideoEmitter4pullERN2cv7GRunArgE(ptr noundef nonnull readonly align 8 captures(none) dereferenceable(24) %0, ptr noundef nonnull align 8 dereferenceable(160) %1) unnamed_addr #3 align 2 personality ptr @__gxx_personality_v0 {
  %3 = alloca %"struct.cv::gapi::wip::Data", align 8
  call void @llvm.lifetime.start.p0(i64 160, ptr nonnull %3) #30
  call void @_ZN2cv7GRunArgC2Ev(ptr noundef nonnull align 8 dereferenceable(160) %3)
  %4 = getelementptr inbounds nuw i8, ptr %0, i64 8
  %5 = load ptr, ptr %4, align 8, !tbaa !748
  %6 = load ptr, ptr %5, align 8, !tbaa !3
  %7 = load ptr, ptr %6, align 8
  %8 = invoke noundef zeroext i1 %7(ptr noundef nonnull align 8 dereferenceable(24) %5, ptr noundef nonnull align 8 dereferenceable(160) %3)
          to label %9 unwind label %10

9:                                                ; preds = %2
  br i1 %8, label %12, label %14

10:                                               ; preds = %12, %2
  %11 = landingpad { ptr, i32 }
          cleanup
  call void @_ZN2cv7GRunArgD2Ev(ptr noundef nonnull align 8 dereferenceable(160) %3) #30
  call void @llvm.lifetime.end.p0(i64 160, ptr nonnull %3) #30
  resume { ptr, i32 } %11

12:                                               ; preds = %9
  %13 = invoke noundef nonnull align 8 dereferenceable(160) ptr @_ZN2cv7GRunArgaSEOS0_(ptr noundef nonnull align 8 dereferenceable(160) %1, ptr noundef nonnull align 8 dereferenceable(160) %3)
          to label %14 unwind label %10

14:                                               ; preds = %12, %9
  %15 = getelementptr inbounds nuw i8, ptr %3, i64 104
  %16 = getelementptr inbounds nuw i8, ptr %3, i64 120
  %17 = load ptr, ptr %16, align 8, !tbaa !332
  %.not5.i.i.i.i.i = icmp eq ptr %17, null
  br i1 %.not5.i.i.i.i.i, label %_ZNSt10_HashtableINSt7__cxx1112basic_stringIcSt11char_traitsIcESaIcEEESt4pairIKS5_N2cv4util3anyEESaISB_ENSt8__detail10_Select1stESt8equal_toIS5_ESt4hashIS5_ENSD_18_Mod_range_hashingENSD_20_Default_ranged_hashENSD_20_Prime_rehash_policyENSD_17_Hashtable_traitsILb1ELb0ELb1EEEE5clearEv.exit.i.i.i, label %.lr.ph.i.i.i.i.i

.lr.ph.i.i.i.i.i:                                 ; preds = %14, %_ZNSt8__detail16_Hashtable_allocISaINS_10_Hash_nodeISt4pairIKNSt7__cxx1112basic_stringIcSt11char_traitsIcESaIcEEEN2cv4util3anyEELb1EEEEE18_M_deallocate_nodeEPSE_.exit.i.i.i.i.i
  %.06.i.i.i.i.i = phi ptr [ %18, %_ZNSt8__detail16_Hashtable_allocISaINS_10_Hash_nodeISt4pairIKNSt7__cxx1112basic_stringIcSt11char_traitsIcESaIcEEEN2cv4util3anyEELb1EEEEE18_M_deallocate_nodeEPSE_.exit.i.i.i.i.i ], [ %17, %14 ]
  %18 = load ptr, ptr %.06.i.i.i.i.i, align 8, !tbaa !92
  %19 = getelementptr inbounds nuw i8, ptr %.06.i.i.i.i.i, i64 8
  %20 = getelementptr inbounds nuw i8, ptr %.06.i.i.i.i.i, i64 40
  %21 = load ptr, ptr %20, align 8, !tbaa !191
  %.not.i.i.i.i.i.i.i.i.i.i.i = icmp eq ptr %21, null
  br i1 %.not.i.i.i.i.i.i.i.i.i.i.i, label %_ZN2cv4util3anyD2Ev.exit.i.i.i.i.i.i.i.i.i, label %_ZNKSt14default_deleteIN2cv4util3any6holderEEclEPS3_.exit.i.i.i.i.i.i.i.i.i.i.i

_ZNKSt14default_deleteIN2cv4util3any6holderEEclEPS3_.exit.i.i.i.i.i.i.i.i.i.i.i: ; preds = %.lr.ph.i.i.i.i.i
  %22 = load ptr, ptr %21, align 8, !tbaa !3
  %23 = getelementptr inbounds nuw i8, ptr %22, i64 16
  %24 = load ptr, ptr %23, align 8
  call void %24(ptr noundef nonnull align 8 dereferenceable(8) %21) #30
  br label %_ZN2cv4util3anyD2Ev.exit.i.i.i.i.i.i.i.i.i

_ZN2cv4util3anyD2Ev.exit.i.i.i.i.i.i.i.i.i:       ; preds = %_ZNKSt14default_deleteIN2cv4util3any6holderEEclEPS3_.exit.i.i.i.i.i.i.i.i.i.i.i, %.lr.ph.i.i.i.i.i
  store ptr null, ptr %20, align 8, !tbaa !191
  %25 = load ptr, ptr %19, align 8, !tbaa !36
  %26 = getelementptr inbounds nuw i8, ptr %.06.i.i.i.i.i, i64 24
  %27 = icmp eq ptr %25, %26
  br i1 %27, label %_ZNKSt7__cxx1112basic_stringIcSt11char_traitsIcESaIcEE11_M_is_localEv.exit.thread.i.i.i.i.i.i.i.i.i.i.i, label %_ZNKSt7__cxx1112basic_stringIcSt11char_traitsIcESaIcEE11_M_is_localEv.exit.i.i.i.i.i.i.i.i.i.i.i

_ZNKSt7__cxx1112basic_stringIcSt11char_traitsIcESaIcEE11_M_is_localEv.exit.thread.i.i.i.i.i.i.i.i.i.i.i: ; preds = %_ZN2cv4util3anyD2Ev.exit.i.i.i.i.i.i.i.i.i
  %28 = getelementptr inbounds nuw i8, ptr %.06.i.i.i.i.i, i64 16
  %29 = load i64, ptr %28, align 8, !tbaa !32
  %30 = icmp ult i64 %29, 16
  call void @llvm.assume(i1 %30)
  br label %_ZNSt8__detail16_Hashtable_allocISaINS_10_Hash_nodeISt4pairIKNSt7__cxx1112basic_stringIcSt11char_traitsIcESaIcEEEN2cv4util3anyEELb1EEEEE18_M_deallocate_nodeEPSE_.exit.i.i.i.i.i

_ZNKSt7__cxx1112basic_stringIcSt11char_traitsIcESaIcEE11_M_is_localEv.exit.i.i.i.i.i.i.i.i.i.i.i: ; preds = %_ZN2cv4util3anyD2Ev.exit.i.i.i.i.i.i.i.i.i
  call void @_ZdlPv(ptr noundef %25) #31
  br label %_ZNSt8__detail16_Hashtable_allocISaINS_10_Hash_nodeISt4pairIKNSt7__cxx1112basic_stringIcSt11char_traitsIcESaIcEEEN2cv4util3anyEELb1EEEEE18_M_deallocate_nodeEPSE_.exit.i.i.i.i.i

_ZNSt8__detail16_Hashtable_allocISaINS_10_Hash_nodeISt4pairIKNSt7__cxx1112basic_stringIcSt11char_traitsIcESaIcEEEN2cv4util3anyEELb1EEEEE18_M_deallocate_nodeEPSE_.exit.i.i.i.i.i: ; preds = %_ZNKSt7__cxx1112basic_stringIcSt11char_traitsIcESaIcEE11_M_is_localEv.exit.i.i.i.i.i.i.i.i.i.i.i, %_ZNKSt7__cxx1112basic_stringIcSt11char_traitsIcESaIcEE11_M_is_localEv.exit.thread.i.i.i.i.i.i.i.i.i.i.i
  call void @_ZdlPv(ptr noundef nonnull %.06.i.i.i.i.i) #31
  %.not.i.i.i.i.i = icmp eq ptr %18, null
  br i1 %.not.i.i.i.i.i, label %_ZNSt10_HashtableINSt7__cxx1112basic_stringIcSt11char_traitsIcESaIcEEESt4pairIKS5_N2cv4util3anyEESaISB_ENSt8__detail10_Select1stESt8equal_toIS5_ESt4hashIS5_ENSD_18_Mod_range_hashingENSD_20_Default_ranged_hashENSD_20_Prime_rehash_policyENSD_17_Hashtable_traitsILb1ELb0ELb1EEEE5clearEv.exit.i.i.i, label %.lr.ph.i.i.i.i.i, !llvm.loop !334

_ZNSt10_HashtableINSt7__cxx1112basic_stringIcSt11char_traitsIcESaIcEEESt4pairIKS5_N2cv4util3anyEESaISB_ENSt8__detail10_Select1stESt8equal_toIS5_ESt4hashIS5_ENSD_18_Mod_range_hashingENSD_20_Default_ranged_hashENSD_20_Prime_rehash_policyENSD_17_Hashtable_traitsILb1ELb0ELb1EEEE5clearEv.exit.i.i.i: ; preds = %_ZNSt8__detail16_Hashtable_allocISaINS_10_Hash_nodeISt4pairIKNSt7__cxx1112basic_stringIcSt11char_traitsIcESaIcEEEN2cv4util3anyEELb1EEEEE18_M_deallocate_nodeEPSE_.exit.i.i.i.i.i, %14
  %31 = load ptr, ptr %15, align 8, !tbaa !335
  %32 = getelementptr inbounds nuw i8, ptr %3, i64 112
  %33 = load i64, ptr %32, align 8, !tbaa !336
  %34 = shl i64 %33, 3
  call void @llvm.memset.p0.i64(ptr align 8 %31, i8 0, i64 %34, i1 false)
  call void @llvm.memset.p0.i64(ptr noundef nonnull align 8 dereferenceable(16) %16, i8 0, i64 16, i1 false)
  %35 = load ptr, ptr %15, align 8, !tbaa !335
  %36 = getelementptr inbounds nuw i8, ptr %3, i64 152
  %37 = icmp eq ptr %35, %36
  br i1 %37, label %_ZNSt13unordered_mapINSt7__cxx1112basic_stringIcSt11char_traitsIcESaIcEEEN2cv4util3anyESt4hashIS5_ESt8equal_toIS5_ESaISt4pairIKS5_S8_EEED2Ev.exit.i, label %38

38:                                               ; preds = %_ZNSt10_HashtableINSt7__cxx1112basic_stringIcSt11char_traitsIcESaIcEEESt4pairIKS5_N2cv4util3anyEESaISB_ENSt8__detail10_Select1stESt8equal_toIS5_ESt4hashIS5_ENSD_18_Mod_range_hashingENSD_20_Default_ranged_hashENSD_20_Prime_rehash_policyENSD_17_Hashtable_traitsILb1ELb0ELb1EEEE5clearEv.exit.i.i.i
  call void @_ZdlPv(ptr noundef %35) #31
  br label %_ZNSt13unordered_mapINSt7__cxx1112basic_stringIcSt11char_traitsIcESaIcEEEN2cv4util3anyESt4hashIS5_ESt8equal_toIS5_ESaISt4pairIKS5_S8_EEED2Ev.exit.i

_ZNSt13unordered_mapINSt7__cxx1112basic_stringIcSt11char_traitsIcESaIcEEEN2cv4util3anyESt4hashIS5_ESt8equal_toIS5_ESaISt4pairIKS5_S8_EEED2Ev.exit.i: ; preds = %38, %_ZNSt10_HashtableINSt7__cxx1112basic_stringIcSt11char_traitsIcESaIcEEESt4pairIKS5_N2cv4util3anyEESaISB_ENSt8__detail10_Select1stESt8equal_toIS5_ESt4hashIS5_ENSD_18_Mod_range_hashingENSD_20_Default_ranged_hashENSD_20_Prime_rehash_policyENSD_17_Hashtable_traitsILb1ELb0ELb1EEEE5clearEv.exit.i.i.i
  %39 = load i64, ptr %3, align 8, !tbaa !337
  %40 = getelementptr inbounds nuw [8 x ptr], ptr @constinit.40, i64 0, i64 %39
  %41 = load ptr, ptr %40, align 8, !tbaa !35
  %42 = getelementptr inbounds nuw i8, ptr %3, i64 8
  invoke void %41(ptr noundef nonnull %42)
          to label %_ZN2cv7GRunArgD2Ev.exit unwind label %43

43:                                               ; preds = %_ZNSt13unordered_mapINSt7__cxx1112basic_stringIcSt11char_traitsIcESaIcEEEN2cv4util3anyESt4hashIS5_ESt8equal_toIS5_ESaISt4pairIKS5_S8_EEED2Ev.exit.i
  %44 = landingpad { ptr, i32 }
          catch ptr null
  %45 = extractvalue { ptr, i32 } %44, 0
  call void @__clang_call_terminate(ptr %45) #34
  unreachable

_ZN2cv7GRunArgD2Ev.exit:                          ; preds = %_ZNSt13unordered_mapINSt7__cxx1112basic_stringIcSt11char_traitsIcESaIcEEEN2cv4util3anyESt4hashIS5_ESt8equal_toIS5_ESaISt4pairIKS5_S8_EEED2Ev.exit.i
  call void @llvm.lifetime.end.p0(i64 160, ptr nonnull %3) #30
  ret i1 %8
}